target datalayout = "e-m:e-p270:32:32-p271:32:32-p272:64:64-i64:64-i128:128-f80:128-n8:16:32:64-S128"
target triple = "x86_64-pc-linux-gnu"

%struct.AVHWDeviceContext = type { ptr, i32, ptr, ptr, ptr }
%struct.VAAPIDeviceContext = type { %struct.AVVAAPIDeviceContext, ptr, i32 }
%struct.AVVAAPIDeviceContext = type { ptr, i32 }
%struct._VAImageFormat = type { i32, i32, i32, i32, i32, i32, i32, i32, [4 x i32] }
%struct.VAAPISurfaceFormat = type { i32, %struct._VAImageFormat }
%struct.AVHWFramesContext = type { ptr, ptr, ptr, ptr, ptr, ptr, ptr, i32, i32, i32, i32, i32 }

@.str.54 = private unnamed_addr constant [30 x i8] c"Assertion %s failed at %s:%d\0A\00", align 1
@.str.56 = private unnamed_addr constant [28 x i8] c"libavutil/hwcontext_vaapi.c\00", align 1
@.str.68 = private unnamed_addr constant [20 x i8] c"k < ctx->nb_formats\00", align 1

; Function Attrs: nounwind uwtable
define internal i32 @vaapi_transfer_get_formats(ptr noundef %0, i32 noundef %1, ptr noundef %2) #0 {
  %4 = alloca i32, align 4
  %5 = alloca ptr, align 8
  %6 = alloca i32, align 4
  %7 = alloca ptr, align 8
  %8 = alloca ptr, align 8
  %9 = alloca ptr, align 8
  %10 = alloca i32, align 4
  %11 = alloca i32, align 4
  %12 = alloca i32, align 4
  %13 = alloca i32, align 4
  store ptr %0, ptr %5, align 8, !tbaa !97
  store i32 %1, ptr %6, align 4, !tbaa !13
  store ptr %2, ptr %7, align 8, !tbaa !48
  call void @llvm.lifetime.start.p0(i64 8, ptr %8) #10
  %14 = load ptr, ptr %5, align 8, !tbaa !97
  %15 = getelementptr inbounds nuw %struct.AVHWFramesContext, ptr %14, i32 0, i32 2
  %16 = load ptr, ptr %15, align 8, !tbaa !107
  %17 = getelementptr inbounds nuw %struct.AVHWDeviceContext, ptr %16, i32 0, i32 2
  %18 = load ptr, ptr %17, align 8, !tbaa !43
  store ptr %18, ptr %8, align 8, !tbaa !50
  call void @llvm.lifetime.start.p0(i64 8, ptr %9) #10
  call void @llvm.lifetime.start.p0(i64 4, ptr %10) #10
  call void @llvm.lifetime.start.p0(i64 4, ptr %11) #10
  call void @llvm.lifetime.start.p0(i64 4, ptr %12) #10
  store i32 0, ptr %12, align 4, !tbaa !13
  store i32 0, ptr %10, align 4, !tbaa !13
  br label %19

19:                                               ; preds = %40, %3
  %20 = load i32, ptr %10, align 4, !tbaa !13
  %21 = load ptr, ptr %8, align 8, !tbaa !50
  %22 = getelementptr inbounds nuw %struct.VAAPIDeviceContext, ptr %21, i32 0, i32 2
  %23 = load i32, ptr %22, align 8, !tbaa !61
  %24 = icmp slt i32 %20, %23
  br i1 %24, label %25, label %43

25:                                               ; preds = %19
  %26 = load ptr, ptr %8, align 8, !tbaa !50
  %27 = getelementptr inbounds nuw %struct.VAAPIDeviceContext, ptr %26, i32 0, i32 1
  %28 = load ptr, ptr %27, align 8, !tbaa !58
  %29 = load i32, ptr %10, align 4, !tbaa !13
  %30 = sext i32 %29 to i64
  %31 = getelementptr inbounds %struct.VAAPISurfaceFormat, ptr %28, i64 %30
  %32 = getelementptr inbounds nuw %struct.VAAPISurfaceFormat, ptr %31, i32 0, i32 0
  %33 = load i32, ptr %32, align 4, !tbaa !64
  %34 = load ptr, ptr %5, align 8, !tbaa !97
  %35 = getelementptr inbounds nuw %struct.AVHWFramesContext, ptr %34, i32 0, i32 9
  %36 = load i32, ptr %35, align 8, !tbaa !109
  %37 = icmp eq i32 %33, %36
  br i1 %37, label %38, label %39

38:                                               ; preds = %25
  store i32 1, ptr %12, align 4, !tbaa !13
  br label %39

39:                                               ; preds = %38, %25
  br label %40

40:                                               ; preds = %39
  %41 = load i32, ptr %10, align 4, !tbaa !13
  %42 = add nsw i32 %41, 1
  store i32 %42, ptr %10, align 4, !tbaa !13
  br label %19, !llvm.loop !156

43:                                               ; preds = %19
  %44 = load ptr, ptr %8, align 8, !tbaa !50
  %45 = getelementptr inbounds nuw %struct.VAAPIDeviceContext, ptr %44, i32 0, i32 2
  %46 = load i32, ptr %45, align 8, !tbaa !61
  %47 = add nsw i32 %46, 1
  %48 = sext i32 %47 to i64
  %49 = mul i64 %48, 4
  %50 = call noalias ptr @av_malloc(i64 noundef %49)
  store ptr %50, ptr %9, align 8, !tbaa !15
  %51 = load ptr, ptr %9, align 8, !tbaa !15
  %52 = icmp ne ptr %51, null
  br i1 %52, label %54, label %53

53:                                               ; preds = %43
  store i32 -12, ptr %4, align 4
  store i32 1, ptr %13, align 4
  br label %119

54:                                               ; preds = %43
  %55 = load i32, ptr %12, align 4, !tbaa !13
  %56 = icmp ne i32 %55, 0
  br i1 %56, label %57, label %63

57:                                               ; preds = %54
  %58 = load ptr, ptr %5, align 8, !tbaa !97
  %59 = getelementptr inbounds nuw %struct.AVHWFramesContext, ptr %58, i32 0, i32 9
  %60 = load i32, ptr %59, align 8, !tbaa !109
  %61 = load ptr, ptr %9, align 8, !tbaa !15
  %62 = getelementptr inbounds i32, ptr %61, i64 0
  store i32 %60, ptr %62, align 4, !tbaa !13
  store i32 1, ptr %11, align 4, !tbaa !13
  br label %64

63:                                               ; preds = %54
  store i32 0, ptr %11, align 4, !tbaa !13
  br label %64

64:                                               ; preds = %63, %57
  store i32 0, ptr %10, align 4, !tbaa !13
  br label %65

65:                                               ; preds = %109, %64
  %66 = load i32, ptr %10, align 4, !tbaa !13
  %67 = load ptr, ptr %8, align 8, !tbaa !50
  %68 = getelementptr inbounds nuw %struct.VAAPIDeviceContext, ptr %67, i32 0, i32 2
  %69 = load i32, ptr %68, align 8, !tbaa !61
  %70 = icmp slt i32 %66, %69
  br i1 %70, label %71, label %112

71:                                               ; preds = %65
  %72 = load ptr, ptr %8, align 8, !tbaa !50
  %73 = getelementptr inbounds nuw %struct.VAAPIDeviceContext, ptr %72, i32 0, i32 1
  %74 = load ptr, ptr %73, align 8, !tbaa !58
  %75 = load i32, ptr %10, align 4, !tbaa !13
  %76 = sext i32 %75 to i64
  %77 = getelementptr inbounds %struct.VAAPISurfaceFormat, ptr %74, i64 %76
  %78 = getelementptr inbounds nuw %struct.VAAPISurfaceFormat, ptr %77, i32 0, i32 0
  %79 = load i32, ptr %78, align 4, !tbaa !64
  %80 = load ptr, ptr %5, align 8, !tbaa !97
  %81 = getelementptr inbounds nuw %struct.AVHWFramesContext, ptr %80, i32 0, i32 9
  %82 = load i32, ptr %81, align 8, !tbaa !109
  %83 = icmp eq i32 %79, %82
  br i1 %83, label %84, label %85

84:                                               ; preds = %71
  br label %109

85:                                               ; preds = %71
  br label %86

86:                                               ; preds = %85
  %87 = load i32, ptr %11, align 4, !tbaa !13
  %88 = load ptr, ptr %8, align 8, !tbaa !50
  %89 = getelementptr inbounds nuw %struct.VAAPIDeviceContext, ptr %88, i32 0, i32 2
  %90 = load i32, ptr %89, align 8, !tbaa !61
  %91 = icmp slt i32 %87, %90
  br i1 %91, label %93, label %92

92:                                               ; preds = %86
  call void (ptr, i32, ptr, ...) @av_log(ptr noundef null, i32 noundef 0, ptr noundef @.str.54, ptr noundef @.str.68, ptr noundef @.str.56, i32 noundef 754)
  call void @abort() #13
  unreachable

93:                                               ; preds = %86
  br label %94

94:                                               ; preds = %93
  br label %95

95:                                               ; preds = %94
  %96 = load ptr, ptr %8, align 8, !tbaa !50
  %97 = getelementptr inbounds nuw %struct.VAAPIDeviceContext, ptr %96, i32 0, i32 1
  %98 = load ptr, ptr %97, align 8, !tbaa !58
  %99 = load i32, ptr %10, align 4, !tbaa !13
  %100 = sext i32 %99 to i64
  %101 = getelementptr inbounds %struct.VAAPISurfaceFormat, ptr %98, i64 %100
  %102 = getelementptr inbounds nuw %struct.VAAPISurfaceFormat, ptr %101, i32 0, i32 0
  %103 = load i32, ptr %102, align 4, !tbaa !64
  %104 = load ptr, ptr %9, align 8, !tbaa !15
  %105 = load i32, ptr %11, align 4, !tbaa !13
  %106 = add nsw i32 %105, 1
  store i32 %106, ptr %11, align 4, !tbaa !13
  %107 = sext i32 %105 to i64
  %108 = getelementptr inbounds i32, ptr %104, i64 %107
  store i32 %103, ptr %108, align 4, !tbaa !13
  br label %109

109:                                              ; preds = %95, %84
  %110 = load i32, ptr %10, align 4, !tbaa !13
  %111 = add nsw i32 %110, 1
  store i32 %111, ptr %10, align 4, !tbaa !13
  br label %65, !llvm.loop !157

112:                                              ; preds = %65
  %113 = load ptr, ptr %9, align 8, !tbaa !15
  %114 = load i32, ptr %11, align 4, !tbaa !13
  %115 = sext i32 %114 to i64
  %116 = getelementptr inbounds i32, ptr %113, i64 %115
  store i32 -1, ptr %116, align 4, !tbaa !13
  %117 = load ptr, ptr %9, align 8, !tbaa !15
  %118 = load ptr, ptr %7, align 8, !tbaa !48
  store ptr %117, ptr %118, align 8, !tbaa !15
  store i32 0, ptr %4, align 4
  store i32 1, ptr %13, align 4
  br label %119

119:                                              ; preds = %112, %53
  call void @llvm.lifetime.end.p0(i64 4, ptr %12) #10
  call void @llvm.lifetime.end.p0(i64 4, ptr %11) #10
  call void @llvm.lifetime.end.p0(i64 4, ptr %10) #10
  call void @llvm.lifetime.end.p0(i64 8, ptr %9) #10
  call void @llvm.lifetime.end.p0(i64 8, ptr %8) #10
  %120 = load i32, ptr %4, align 4
  ret i32 %120
}