; Function Attrs: nounwind uwtable
define internal range(i32 -12, 1) i32 @vaapi_transfer_get_formats(ptr noundef readonly captures(none) %0, i32 %1, ptr noundef writeonly captures(none) %2) #0 {
  %4 = getelementptr inbounds nuw i8, ptr %0, i64 16
  %5 = load ptr, ptr %4, align 8, !tbaa !80
  %6 = getelementptr inbounds nuw i8, ptr %5, i64 16
  %7 = load ptr, ptr %6, align 8, !tbaa !31
  %8 = getelementptr inbounds nuw i8, ptr %7, i64 24
  %9 = load i32, ptr %8, align 8, !tbaa !39
  %10 = icmp sgt i32 %9, 0
  br i1 %10, label %.lr.ph, label %._crit_edge

.lr.ph:                                           ; preds = %3
  %11 = getelementptr inbounds nuw i8, ptr %7, i64 16
  %12 = load ptr, ptr %11, align 8, !tbaa !36
  %13 = getelementptr inbounds nuw i8, ptr %0, i64 64
  %14 = load i32, ptr %13, align 8, !tbaa !82
  %wide.trip.count = zext nneg i32 %9 to i64
  br label %15

15:                                               ; preds = %.lr.ph, %15
  %indvars.iv = phi i64 [ 0, %.lr.ph ], [ %indvars.iv.next, %15 ]
  %.041 = phi i32 [ 0, %.lr.ph ], [ %spec.select, %15 ]
  %16 = getelementptr inbounds nuw %struct.VAAPISurfaceFormat, ptr %12, i64 %indvars.iv
  %17 = load i32, ptr %16, align 4, !tbaa !46
  %18 = icmp eq i32 %17, %14
  %spec.select = select i1 %18, i32 1, i32 %.041
  %indvars.iv.next = add nuw nsw i64 %indvars.iv, 1
  %exitcond.not = icmp eq i64 %indvars.iv.next, %wide.trip.count
  br i1 %exitcond.not, label %._crit_edge.loopexit, label %15, !llvm.loop !126

._crit_edge.loopexit:                             ; preds = %15
  %19 = icmp eq i32 %spec.select, 0
  br label %._crit_edge

._crit_edge:                                      ; preds = %._crit_edge.loopexit, %3
  %.0.lcssa = phi i1 [ true, %3 ], [ %19, %._crit_edge.loopexit ]
  %20 = add nsw i32 %9, 1
  %21 = sext i32 %20 to i64
  %22 = shl nsw i64 %21, 2
  %23 = tail call noalias ptr @av_malloc(i64 noundef %22) #11
  %.not = icmp eq ptr %23, null
  br i1 %.not, label %51, label %24

24:                                               ; preds = %._crit_edge
  br i1 %.0.lcssa, label %28, label %25

25:                                               ; preds = %24
  %26 = getelementptr inbounds nuw i8, ptr %0, i64 64
  %27 = load i32, ptr %26, align 8, !tbaa !82
  store i32 %27, ptr %23, align 4, !tbaa !26
  br label %28

28:                                               ; preds = %24, %25
  %.028 = phi i32 [ 1, %25 ], [ 0, %24 ]
  %29 = load i32, ptr %8, align 8, !tbaa !39
  %30 = icmp sgt i32 %29, 0
  br i1 %30, label %.lr.ph46, label %._crit_edge47

.lr.ph46:                                         ; preds = %28
  %31 = getelementptr inbounds nuw i8, ptr %7, i64 16
  %32 = load ptr, ptr %31, align 8, !tbaa !36
  %33 = getelementptr inbounds nuw i8, ptr %0, i64 64
  %34 = load i32, ptr %33, align 8, !tbaa !82
  %35 = zext nneg i32 %29 to i64
  br label %36

36:                                               ; preds = %.lr.ph46, %47
  %indvars.iv50 = phi i64 [ 0, %.lr.ph46 ], [ %indvars.iv.next51, %47 ]
  %.12944 = phi i32 [ %.028, %.lr.ph46 ], [ %.2, %47 ]
  %37 = getelementptr inbounds nuw %struct.VAAPISurfaceFormat, ptr %32, i64 %indvars.iv50
  %38 = load i32, ptr %37, align 4, !tbaa !46
  %39 = icmp eq i32 %38, %34
  br i1 %39, label %47, label %40

40:                                               ; preds = %36
  %41 = icmp slt i32 %.12944, %29
  br i1 %41, label %43, label %42

42:                                               ; preds = %40
  tail call void (ptr, i32, ptr, ...) @av_log(ptr noundef null, i32 noundef 0, ptr noundef nonnull @.str.54, ptr noundef nonnull @.str.68, ptr noundef nonnull @.str.56, i32 noundef 754) #11
  tail call void @abort() #14
  unreachable

43:                                               ; preds = %40
  %44 = add nsw i32 %.12944, 1
  %45 = sext i32 %.12944 to i64
  %46 = getelementptr inbounds i32, ptr %23, i64 %45
  store i32 %38, ptr %46, align 4, !tbaa !26
  br label %47

47:                                               ; preds = %36, %43
  %.2 = phi i32 [ %.12944, %36 ], [ %44, %43 ]
  %indvars.iv.next51 = add nuw nsw i64 %indvars.iv50, 1
  %48 = icmp samesign ult i64 %indvars.iv.next51, %35
  br i1 %48, label %36, label %._crit_edge47, !llvm.loop !127

._crit_edge47:                                    ; preds = %47, %28
  %.129.lcssa = phi i32 [ %.028, %28 ], [ %.2, %47 ]
  %49 = sext i32 %.129.lcssa to i64
  %50 = getelementptr inbounds i32, ptr %23, i64 %49
  store i32 -1, ptr %50, align 4, !tbaa !26
  store ptr %23, ptr %2, align 8, !tbaa !128
  br label %51

51:                                               ; preds = %._crit_edge, %._crit_edge47
  %.032 = phi i32 [ 0, %._crit_edge47 ], [ -12, %._crit_edge ]
  ret i32 %.032
}